; Function Attrs: nounwind uwtable
define float @Gia_ManPatGetOneQuo(ptr noundef captures(none) %0, i32 noundef %1, ptr noundef %2, i32 noundef %3, i32 noundef %4) local_unnamed_addr #4 {
  %6 = tail call ptr @Gia_SimCollectRare(ptr noundef %0, ptr noundef %2, i32 noundef %1)
  %7 = getelementptr inbounds nuw i8, ptr %0, i64 848
  %8 = load ptr, ptr %7, align 8, !tbaa !36
  store ptr %2, ptr %7, align 8, !tbaa !36
  %9 = tail call ptr @Gia_ManSimPatSim(ptr noundef %0)
  store ptr %8, ptr %7, align 8, !tbaa !36
  %10 = getelementptr i8, ptr %6, i64 4
  %.val.i = load i32, ptr %10, align 4, !tbaa !28
  %11 = icmp sgt i32 %.val.i, 1
  %12 = getelementptr i8, ptr %6, i64 8
  %.val21.i = load ptr, ptr %12, align 8, !tbaa !29
  br i1 %11, label %.lr.ph.i, label %Gia_ManPatGetQuo.exit

.lr.ph.i:                                         ; preds = %5
  %13 = getelementptr i8, ptr %9, i64 8
  %.val22.i = load ptr, ptr %13, align 8, !tbaa !31
  %14 = ashr i32 %4, 6
  %15 = sext i32 %14 to i64
  %invariant.gep.i = getelementptr i64, ptr %.val22.i, i64 %15
  %16 = and i32 %4, 63
  %17 = zext nneg i32 %16 to i64
  %18 = zext nneg i32 %.val.i to i64
  br label %19

19:                                               ; preds = %19, %.lr.ph.i
  %indvars.iv.i = phi i64 [ 0, %.lr.ph.i ], [ %indvars.iv.next.i, %19 ]
  %.024.i = phi float [ 0.000000e+00, %.lr.ph.i ], [ %.1.i, %19 ]
  %20 = or disjoint i64 %indvars.iv.i, 1
  %21 = getelementptr inbounds nuw i32, ptr %.val21.i, i64 %indvars.iv.i
  %22 = load i32, ptr %21, align 4, !tbaa !30
  %23 = getelementptr inbounds nuw i32, ptr %.val21.i, i64 %20
  %24 = load i32, ptr %23, align 4, !tbaa !30
  %25 = ashr i32 %22, 1
  %26 = mul nsw i32 %25, %3
  %27 = sext i32 %26 to i64
  %gep.i = getelementptr i64, ptr %invariant.gep.i, i64 %27
  %28 = load i64, ptr %gep.i, align 8, !tbaa !41
  %29 = lshr i64 %28, %17
  %30 = trunc i64 %29 to i32
  %31 = xor i32 %22, %30
  %32 = and i32 %31, 1
  %33 = icmp eq i32 %32, 0
  %34 = add nsw i32 %24, 1
  %35 = sitofp i32 %34 to float
  %36 = fdiv float 1.000000e+00, %35
  %37 = fadd float %.024.i, %36
  %.1.i = select i1 %33, float %37, float %.024.i
  %indvars.iv.next.i = add nuw nsw i64 %indvars.iv.i, 2
  %38 = or disjoint i64 %indvars.iv.next.i, 1
  %39 = icmp samesign ult i64 %38, %18
  br i1 %39, label %19, label %Gia_ManPatGetQuo.exit.thread, !llvm.loop !322

Gia_ManPatGetQuo.exit.thread:                     ; preds = %19
  %40 = fadd float %.1.i, 0.000000e+00
  br label %41

Gia_ManPatGetQuo.exit:                            ; preds = %5
  %.not.i = icmp eq ptr %.val21.i, null
  br i1 %.not.i, label %Vec_IntFree.exit, label %41

41:                                               ; preds = %Gia_ManPatGetQuo.exit.thread, %Gia_ManPatGetQuo.exit
  %.0.lcssa.i20 = phi float [ %40, %Gia_ManPatGetQuo.exit.thread ], [ 0.000000e+00, %Gia_ManPatGetQuo.exit ]
  tail call void @free(ptr noundef nonnull %.val21.i) #32
  br label %Vec_IntFree.exit

Vec_IntFree.exit:                                 ; preds = %Gia_ManPatGetQuo.exit, %41
  %.0.lcssa.i21 = phi float [ 0.000000e+00, %Gia_ManPatGetQuo.exit ], [ %.0.lcssa.i20, %41 ]
  tail call void @free(ptr noundef nonnull %6) #32
  %42 = getelementptr inbounds nuw i8, ptr %9, i64 8
  %43 = load ptr, ptr %42, align 8, !tbaa !31
  %.not.i17 = icmp eq ptr %43, null
  br i1 %.not.i17, label %Vec_WrdFree.exit, label %44

44:                                               ; preds = %Vec_IntFree.exit
  tail call void @free(ptr noundef nonnull %43) #32
  br label %Vec_WrdFree.exit

Vec_WrdFree.exit:                                 ; preds = %Vec_IntFree.exit, %44
  tail call void @free(ptr noundef nonnull %9) #32
  ret float %.0.lcssa.i21
}